target datalayout = "e-m:e-p270:32:32-p271:32:32-p272:64:64-i64:64-i128:128-f80:128-n8:16:32:64-S128"
target triple = "x86_64-pc-linux-gnu"

; Function Attrs: nounwind uwtable
define hidden i32 @_Py_GetTicksPerSecond(ptr noundef %0) #0 {
  %2 = alloca i32, align 4
  %3 = alloca ptr, align 8
  %4 = alloca i64, align 8
  %5 = alloca i32, align 4
  store ptr %0, ptr %3, align 8, !tbaa !189
  call void @llvm.lifetime.start.p0(i64 8, ptr %4) #10
  %6 = call i64 @sysconf(i32 noundef 2) #10
  store i64 %6, ptr %4, align 8, !tbaa !186
  %7 = load i64, ptr %4, align 8, !tbaa !186
  %8 = icmp slt i64 %7, 1
  br i1 %8, label %9, label %10

9:                                                ; preds = %1
  store i32 -1, ptr %2, align 4
  store i32 1, ptr %5, align 4
  br label %13

10:                                               ; preds = %1
  %11 = load i64, ptr %4, align 8, !tbaa !186
  %12 = load ptr, ptr %3, align 8, !tbaa !189
  store i64 %11, ptr %12, align 8, !tbaa !186
  store i32 0, ptr %2, align 4
  store i32 1, ptr %5, align 4
  br label %13

13:                                               ; preds = %10, %9
  call void @llvm.lifetime.end.p0(i64 8, ptr %4) #10
  %14 = load i32, ptr %2, align 4
  ret i32 %14
}