; Function Attrs: nounwind uwtable
define hidden range(i32 -1, 1) i32 @_Py_GetTicksPerSecond(ptr noundef writeonly captures(none) %0) local_unnamed_addr #0 {
  %2 = tail call i64 @sysconf(i32 noundef 2) #17
  %3 = icmp slt i64 %2, 1
  br i1 %3, label %5, label %4

4:                                                ; preds = %1
  store i64 %2, ptr %0, align 8, !tbaa !183
  br label %5

5:                                                ; preds = %1, %4
  %.0 = phi i32 [ 0, %4 ], [ -1, %1 ]
  ret i32 %.0
}